; Function Attrs: mustprogress nofree norecurse nosync nounwind willreturn memory(argmem: read) uwtable
define dso_local noundef zeroext i1 @_ZN4llvm23ReplaceableMetadataImpl13isReplaceableERKNS_8MetadataE(ptr nocapture noundef nonnull readonly align 4 dereferenceable(8) %0) local_unnamed_addr #8 align 2 {
  %2 = load i8, ptr %0, align 4
  %.off = add i8 %2, -5
  %switch = icmp ult i8 %.off, 31
  br i1 %switch, label %3, label %_ZN4llvm8dyn_castINS_6MDNodeEKNS_8MetadataEEEDcPT0_.exit

3:                                                ; preds = %1
  %4 = getelementptr inbounds nuw i8, ptr %0, i64 1
  %5 = load i8, ptr %4, align 1
  %6 = and i8 %5, 127
  %7 = icmp eq i8 %6, 2
  br i1 %7, label %_ZNK4llvm6MDNode10isResolvedEv.exit.thread, label %_ZNK4llvm6MDNode10isResolvedEv.exit

_ZNK4llvm6MDNode10isResolvedEv.exit:              ; preds = %3
  %8 = getelementptr inbounds i8, ptr %0, i64 -8
  %9 = load i32, ptr %8, align 8
  %.not.i = icmp ne i32 %9, 0
  %10 = icmp eq i8 %2, 30
  %spec.select12 = or i1 %.not.i, %10
  br label %_ZNK4llvm6MDNode10isResolvedEv.exit.thread

_ZN4llvm8dyn_castINS_6MDNodeEKNS_8MetadataEEEDcPT0_.exit: ; preds = %1
  %11 = add i8 %2, -1
  %spec.select.i.i.i.i.i.i.i.i = icmp ult i8 %11, 2
  %12 = icmp eq i8 %2, 4
  %spec.select = or i1 %12, %spec.select.i.i.i.i.i.i.i.i
  br label %_ZNK4llvm6MDNode10isResolvedEv.exit.thread

_ZNK4llvm6MDNode10isResolvedEv.exit.thread:       ; preds = %_ZNK4llvm6MDNode10isResolvedEv.exit, %_ZN4llvm8dyn_castINS_6MDNodeEKNS_8MetadataEEEDcPT0_.exit, %3
  %.0 = phi i1 [ true, %3 ], [ %spec.select, %_ZN4llvm8dyn_castINS_6MDNodeEKNS_8MetadataEEEDcPT0_.exit ], [ %spec.select12, %_ZNK4llvm6MDNode10isResolvedEv.exit ]
  ret i1 %.0
}